target datalayout = "e-m:e-p270:32:32-p271:32:32-p272:64:64-i64:64-i128:128-f80:128-n8:16:32:64-S128"
target triple = "x86_64-pc-linux-gnu"

%"class.cv::Mat" = type { i32, i32, i32, i32, ptr, ptr, ptr, ptr, ptr, ptr, %"struct.cv::MatSize", %"struct.cv::MatStep" }
%"struct.cv::MatSize" = type { ptr }
%"struct.cv::MatStep" = type { ptr, [2 x i64] }

; Function Attrs: inlinehint mustprogress nounwind uwtable
define linkonce_odr hidden void @_ZN2cv7MatStepC2Em(ptr noundef nonnull align 8 dereferenceable(24) %0, i64 noundef %1) unnamed_addr #6 comdat align 2 {
  %3 = alloca ptr, align 8
  %4 = alloca i64, align 8
  store ptr %0, ptr %3, align 8, !tbaa !83
  store i64 %1, ptr %4, align 8, !tbaa !31
  %5 = load ptr, ptr %3, align 8
  %6 = getelementptr inbounds nuw %"struct.cv::MatStep", ptr %5, i32 0, i32 1
  %7 = getelementptr inbounds [2 x i64], ptr %6, i64 0, i64 0
  %8 = getelementptr inbounds nuw %"struct.cv::MatStep", ptr %5, i32 0, i32 0
  store ptr %7, ptr %8, align 8, !tbaa !85
  %9 = load i64, ptr %4, align 8, !tbaa !31
  %10 = getelementptr inbounds nuw %"struct.cv::MatStep", ptr %5, i32 0, i32 0
  %11 = load ptr, ptr %10, align 8, !tbaa !85
  %12 = getelementptr inbounds i64, ptr %11, i64 0
  store i64 %9, ptr %12, align 8, !tbaa !31
  %13 = getelementptr inbounds nuw %"struct.cv::MatStep", ptr %5, i32 0, i32 0
  %14 = load ptr, ptr %13, align 8, !tbaa !85
  %15 = getelementptr inbounds i64, ptr %14, i64 1
  store i64 0, ptr %15, align 8, !tbaa !31
  ret void
}

; Function Attrs: inlinehint mustprogress nounwind uwtable
define linkonce_odr hidden void @_ZN2cv7MatSizeC2EPi(ptr noundef nonnull align 8 dereferenceable(8) %0, ptr noundef %1) unnamed_addr #6 comdat align 2 {
  %3 = alloca ptr, align 8
  %4 = alloca ptr, align 8
  store ptr %0, ptr %3, align 8, !tbaa !65
  store ptr %1, ptr %4, align 8, !tbaa !71
  %5 = load ptr, ptr %3, align 8
  %6 = getelementptr inbounds nuw %"struct.cv::MatSize", ptr %5, i32 0, i32 0
  %7 = load ptr, ptr %4, align 8, !tbaa !71
  store ptr %7, ptr %6, align 8, !tbaa !67
  ret void
}

; Function Attrs: mustprogress uwtable
define void @_ZN2cv3MatC2EiPKiiRKNS_7Scalar_IdEE(ptr noundef nonnull align 8 dereferenceable(96) %0, i32 noundef %1, ptr noundef %2, i32 noundef %3, ptr noundef nonnull align 8 dereferenceable(32) %4) unnamed_addr #1 align 2 {
  %6 = alloca ptr, align 8
  %7 = alloca i32, align 4
  %8 = alloca ptr, align 8
  %9 = alloca i32, align 4
  %10 = alloca ptr, align 8
  store ptr %0, ptr %6, align 8, !tbaa !34
  store i32 %1, ptr %7, align 4, !tbaa !26
  store ptr %2, ptr %8, align 8, !tbaa !71
  store i32 %3, ptr %9, align 4, !tbaa !26
  store ptr %4, ptr %10, align 8, !tbaa !95
  %11 = load ptr, ptr %6, align 8
  %12 = getelementptr inbounds nuw %"class.cv::Mat", ptr %11, i32 0, i32 0
  store i32 1124007936, ptr %12, align 8, !tbaa !79
  %13 = getelementptr inbounds nuw %"class.cv::Mat", ptr %11, i32 0, i32 1
  store i32 0, ptr %13, align 4, !tbaa !72
  %14 = getelementptr inbounds nuw %"class.cv::Mat", ptr %11, i32 0, i32 2
  store i32 0, ptr %14, align 8, !tbaa !78
  %15 = getelementptr inbounds nuw %"class.cv::Mat", ptr %11, i32 0, i32 3
  store i32 0, ptr %15, align 4, !tbaa !77
  %16 = getelementptr inbounds nuw %"class.cv::Mat", ptr %11, i32 0, i32 4
  store ptr null, ptr %16, align 8, !tbaa !89
  %17 = getelementptr inbounds nuw %"class.cv::Mat", ptr %11, i32 0, i32 5
  store ptr null, ptr %17, align 8, !tbaa !90
  %18 = getelementptr inbounds nuw %"class.cv::Mat", ptr %11, i32 0, i32 6
  store ptr null, ptr %18, align 8, !tbaa !92
  %19 = getelementptr inbounds nuw %"class.cv::Mat", ptr %11, i32 0, i32 7
  store ptr null, ptr %19, align 8, !tbaa !91
  %20 = getelementptr inbounds nuw %"class.cv::Mat", ptr %11, i32 0, i32 8
  store ptr null, ptr %20, align 8, !tbaa !94
  %21 = getelementptr inbounds nuw %"class.cv::Mat", ptr %11, i32 0, i32 9
  store ptr null, ptr %21, align 8, !tbaa !88
  %22 = getelementptr inbounds nuw %"class.cv::Mat", ptr %11, i32 0, i32 10
  %23 = getelementptr inbounds nuw %"class.cv::Mat", ptr %11, i32 0, i32 2
  call void @_ZN2cv7MatSizeC2EPi(ptr noundef nonnull align 8 dereferenceable(8) %22, ptr noundef %23) #7
  %24 = getelementptr inbounds nuw %"class.cv::Mat", ptr %11, i32 0, i32 11
  call void @_ZN2cv7MatStepC2Em(ptr noundef nonnull align 8 dereferenceable(24) %24, i64 noundef 0) #7
  %25 = load i32, ptr %7, align 4, !tbaa !26
  %26 = load ptr, ptr %8, align 8, !tbaa !71
  %27 = load i32, ptr %9, align 4, !tbaa !26
  call void @_ZN2cv3Mat6createEiPKii(ptr noundef nonnull align 8 dereferenceable(96) %11, i32 noundef %25, ptr noundef %26, i32 noundef %27)
  %28 = load ptr, ptr %10, align 8, !tbaa !95
  %29 = call noundef nonnull align 8 dereferenceable(96) ptr @_ZN2cv3MataSERKNS_7Scalar_IdEE(ptr noundef nonnull align 8 dereferenceable(96) %11, ptr noundef nonnull align 8 dereferenceable(32) %28)
  ret void
}